Certificate:
    Data:
        Version: 3 (0x2)
        Serial Number:
            8f:0b:26:6d:1f:77:d2:83
        Signature Algorithm: sha256WithRSAEncryption
        Issuer: C=MM, ST=Burma, L=Mandalay, O=KBZPay, OU=KBZPay_PGW_CA, CN=api.kbzpay.com/emailAddress=jiangbin@huawei.com
        Validity
            Not Before: Jun  6 07:03:17 2022 GMT
            Not After : May 13 07:03:17 2122 GMT
        Subject: C=MM, ST=Burma, O=KBZPay, OU=KBZPay_PGW_200135, CN=api.kbzpay.com/emailAddress=jiangbin@huawei.com
        Subject Public Key Info:
            Public Key Algorithm: rsaEncryption
                RSA Public-Key: (2048 bit)
                Modulus:
                    00:b2:3a:f5:59:7a:53:fe:f5:bd:e9:b7:cb:68:33:
                    fb:11:1d:63:82:78:ac:b9:2d:98:0c:4a:9a:dc:23:
                    4a:2a:e5:39:12:95:1e:2b:9a:c2:82:21:23:7f:00:
                    dc:05:85:04:21:be:7f:57:84:80:f4:06:bb:0d:65:
                    86:d3:37:4f:6e:f6:3f:b0:3a:a0:e9:71:5c:67:a5:
                    9a:17:28:a8:88:e3:11:64:97:4f:af:fa:b4:6d:2c:
                    58:95:ed:30:40:c7:45:09:f7:31:fd:7a:54:d2:26:
                    98:bc:42:95:4b:75:ad:ac:2e:cd:81:78:3e:f4:6e:
                    75:87:0b:51:d2:25:3c:a6:18:b0:56:10:b4:bc:a5:
                    81:df:99:c2:57:28:f3:bf:08:0b:b4:95:33:71:c2:
                    c5:6a:10:6a:13:cb:df:b3:5e:56:35:41:ca:77:3d:
                    3c:fc:3e:9f:56:99:b2:45:d8:fe:30:16:cd:38:84:
                    cd:f0:67:df:40:09:7a:df:fc:04:e0:1e:cd:2e:35:
                    79:0f:25:ac:0e:14:c6:92:6c:c5:97:e8:55:0d:c4:
                    d5:3c:3c:a6:1d:e7:3c:a0:49:7c:6b:47:d3:13:74:
                    37:27:bb:6a:4c:93:d0:9d:86:ad:3f:24:f8:7e:5c:
                    f0:eb:d0:18:ed:ee:37:8b:f1:6c:53:03:a2:fd:89:
                    b9:ff
                Exponent: 65537 (0x10001)
        X509v3 extensions:
            X509v3 Basic Constraints: 
                CA:FALSE
            Netscape Comment: 
                OpenSSL Generated Certificate
            X509v3 Subject Key Identifier: 
                73:A0:E7:A3:21:FD:04:CC:AB:AD:0D:30:69:00:26:07:D9:44:C4:7C
            X509v3 Authority Key Identifier: 
                keyid:50:82:77:72:75:61:A6:1E:3E:5A:41:9F:75:F8:AE:21:B4:8A:FD:66

    Signature Algorithm: sha256WithRSAEncryption
         de:ea:d1:a4:82:3e:94:4d:d7:44:cb:29:df:9a:4c:77:c4:30:
         92:7f:56:3d:87:56:1c:5b:b6:28:43:36:01:85:04:48:35:92:
         ae:90:b0:4b:ea:14:6a:8f:82:9f:7e:30:9f:e6:d7:f7:5d:e6:
         ac:0e:b2:3d:1b:b3:b3:80:7e:ad:16:db:31:1e:4d:27:cf:c2:
         d3:65:a1:eb:bd:49:ed:15:05:f5:40:0c:bf:45:d3:90:e7:ed:
         40:2f:67:12:86:0a:40:6f:8e:bf:18:cd:c2:cb:5a:57:40:c4:
         2b:e1:e9:cc:56:30:57:e6:6a:a9:84:77:c7:07:c3:92:dc:c4:
         5f:73:e4:db:8f:b8:3b:c5:8d:aa:69:38:4f:6b:f0:e1:72:71:
         a7:54:60:93:fc:ad:4c:34:09:83:f4:71:74:bb:74:45:46:07:
         08:5a:c8:65:2a:fd:5c:95:2f:c7:44:e1:a1:78:ca:b0:9d:53:
         ba:99:db:69:8e:6a:1f:68:49:f9:25:bd:79:72:65:50:df:39:
         9a:78:14:0e:30:ea:4b:54:d9:4a:ee:e0:6e:d5:54:6a:40:90:
         47:0e:15:e6:38:c4:ee:47:8c:35:38:bc:66:1d:7c:9a:03:a3:
         ea:36:ff:2f:ef:ab:f4:57:99:2a:5e:c3:b2:42:ea:c1:36:fd:
         1b:ed:ba:4b
-----BEGIN CERTIFICATE-----
MIIEHzCCAwegAwIBAgIJAI8LJm0fd9KDMA0GCSqGSIb3DQEBCwUAMIGWMQswCQYD
VQQGEwJNTTEOMAwGA1UECAwFQnVybWExETAPBgNVBAcMCE1hbmRhbGF5MQ8wDQYD
VQQKDAZLQlpQYXkxFjAUBgNVBAsMDUtCWlBheV9QR1dfQ0ExFzAVBgNVBAMMDmFw
aS5rYnpwYXkuY29tMSIwIAYJKoZIhvcNAQkBFhNqaWFuZ2JpbkBodWF3ZWkuY29t
MCAXDTIyMDYwNjA3MDMxN1oYDzIxMjIwNTEzMDcwMzE3WjCBhzELMAkGA1UEBhMC
TU0xDjAMBgNVBAgMBUJ1cm1hMQ8wDQYDVQQKDAZLQlpQYXkxGjAYBgNVBAsMEUtC
WlBheV9QR1dfMjAwMTM1MRcwFQYDVQQDDA5hcGkua2J6cGF5LmNvbTEiMCAGCSqG
SIb3DQEJARYTamlhbmdiaW5AaHVhd2VpLmNvbTCCASIwDQYJKoZIhvcNAQEBBQAD
ggEPADCCAQoCggEBALI69Vl6U/71vem3y2gz+xEdY4J4rLktmAxKmtwjSirlORKV
HiuawoIhI38A3AWFBCG+f1eEgPQGuw1lhtM3T272P7A6oOlxXGelmhcoqIjjEWSX
T6/6tG0sWJXtMEDHRQn3Mf16VNImmLxClUt1rawuzYF4PvRudYcLUdIlPKYYsFYQ
tLylgd+Zwlco878IC7SVM3HCxWoQahPL37NeVjVBync9PPw+n1aZskXY/jAWzTiE
zfBn30AJet/8BOAezS41eQ8lrA4UxpJsxZfoVQ3E1Tw8ph3nPKBJfGtH0xN0Nye7
akyT0J2GrT8k+H5c8OvQGO3uN4vxbFMDov2Juf8CAwEAAaN7MHkwCQYDVR0TBAIw
ADAsBglghkgBhvhCAQ0EHxYdT3BlblNTTCBHZW5lcmF0ZWQgQ2VydGlmaWNhdGUw
HQYDVR0OBBYEFHOg56Mh/QTMq60NMGkAJgfZRMR8MB8GA1UdIwQYMBaAFFCCd3J1
YaYePlpBn3X4riG0iv1mMA0GCSqGSIb3DQEBCwUAA4IBAQDe6tGkgj6UTddEyynf
mkx3xDCSf1Y9h1YcW7YoQzYBhQRINZKukLBL6hRqj4KffjCf5tf3XeasDrI9G7Oz
gH6tFtsxHk0nz8LTZaHrvUntFQX1QAy/RdOQ5+1AL2cShgpAb46/GM3Cy1pXQMQr
4enMVjBX5mqphHfHB8OS3MRfc+Tbj7g7xY2qaThPa/DhcnGnVGCT/K1MNAmD9HF0
u3RFRgcIWshlKv1clS/HROGheMqwnVO6mdtpjmofaEn5Jb15cmVQ3zmaeBQOMOpL
VNlK7uBu1VRqQJBHDhXmOMTuR4w1OLxmHXyaA6PqNv8v76v0V5kqXsOyQurBNv0b
7bpL
-----END CERTIFICATE-----
