Certificate:
    Data:
        Version: 3 (0x2)
        Serial Number:
            8f:0b:26:6d:1f:77:cf:21
    Signature Algorithm: sha256WithRSAEncryption
        Issuer: C=MM, ST=Burma, L=Mandalay, O=UAT_KBZPay, OU=UAT_KBZPay_PGW_CA, CN=api.kbzpay.com/emailAddress=jiangbin@huawei.com
        Validity
            Not Before: Mar 25 07:45:54 2022 GMT
            Not After : Mar  1 07:45:54 2122 GMT
        Subject: C=MM, ST=Burma, O=UAT_KBZPay, OU=UAT_KBZPay_PGW_200199, CN=api.kbzpay.com/emailAddress=jiangbin@huawei.com
        Subject Public Key Info:
            Public Key Algorithm: rsaEncryption
                Public-Key: (2048 bit)
                Modulus:
                    00:c7:68:34:31:d5:de:57:25:64:48:a9:3a:d1:b8:
                    c1:b8:75:26:a2:81:35:3c:cd:f5:d3:2d:67:0f:88:
                    7f:d2:e9:f2:c4:1a:47:a6:14:c2:90:4f:21:0b:1a:
                    10:20:a3:12:53:26:3d:2c:44:9b:0c:89:ca:c5:1c:
                    25:36:3b:de:1f:13:3a:80:17:9a:d5:57:b3:f3:c0:
                    51:ba:08:59:84:a7:17:5f:b8:10:32:ff:35:eb:af:
                    ea:2f:2f:63:ea:9e:22:b6:cb:af:16:32:52:3e:09:
                    3d:c8:ab:12:d3:c4:6b:66:51:72:40:b2:2f:85:a1:
                    e9:59:ab:69:12:f2:20:1b:4a:55:f9:e4:6a:23:ea:
                    fd:a5:a3:aa:1d:88:b1:a3:eb:12:d9:ab:1b:31:05:
                    db:f4:4d:bc:90:77:40:5a:24:8d:68:6b:85:12:1a:
                    f4:e9:23:6c:9c:e0:2f:a6:1f:1a:fc:23:c6:2a:2d:
                    a1:56:da:3d:d1:5a:eb:2d:09:09:08:13:14:3b:18:
                    99:b4:f2:36:58:00:aa:c0:74:48:92:94:e4:9a:7c:
                    11:73:7b:7f:20:ed:3e:46:87:99:1f:14:56:0f:ee:
                    50:10:77:1d:9f:41:99:4f:35:34:db:88:b6:f5:97:
                    e2:ca:ac:38:39:e7:b7:35:17:86:8a:27:7e:21:f6:
                    cd:c5
                Exponent: 65537 (0x10001)
        X509v3 extensions:
            X509v3 Basic Constraints: 
                CA:FALSE
            Netscape Comment: 
                OpenSSL Generated Certificate
            X509v3 Subject Key Identifier: 
                1C:EA:81:D5:D3:87:9E:84:64:9F:2D:72:A2:72:7D:93:07:76:DF:4D
            X509v3 Authority Key Identifier: 
                keyid:6D:0B:C4:50:BC:0D:D2:EE:DA:B0:7C:3D:8E:B1:C5:06:47:38:5A:D7

    Signature Algorithm: sha256WithRSAEncryption
         9f:a8:5c:55:85:45:cc:6c:a2:c9:3e:d8:07:14:63:c1:36:81:
         15:9f:1e:4d:36:a9:d1:82:25:1a:cf:f3:64:9f:60:61:bb:c9:
         9c:48:63:75:56:3d:40:f7:85:f3:05:11:3f:32:f7:2a:94:42:
         1e:b4:8d:79:1c:99:ff:e7:c2:d1:5b:73:14:cc:93:ea:95:44:
         12:15:2a:91:66:51:fb:fb:bf:d1:92:b7:b8:e3:1b:4f:36:34:
         cc:ec:ac:65:47:9e:1e:9f:75:35:e3:83:64:68:34:7a:4e:19:
         24:b2:62:c3:53:12:0a:11:f9:49:2f:55:9e:62:9c:4d:6f:04:
         44:b8:7a:43:1a:4c:de:29:6f:2b:2d:77:0d:17:e3:8a:65:c1:
         13:1f:42:4a:51:0d:9c:c3:02:a3:d6:67:5b:c2:fd:da:0c:fc:
         18:53:85:0a:c4:60:ca:ab:3d:d8:bf:49:02:1b:88:ec:83:b8:
         ad:5c:69:76:05:d7:49:50:d3:6b:93:db:9c:dd:de:b2:b1:54:
         27:e3:3e:74:96:c0:57:7d:07:be:39:b8:16:55:b3:ac:31:e9:
         27:46:67:c6:10:ec:49:ae:29:47:23:67:fb:69:98:86:a4:50:
         bd:bc:a1:40:9c:0a:95:9a:eb:75:62:95:03:5a:9a:21:93:86:
         6a:30:d3:84
-----BEGIN CERTIFICATE-----
MIIELzCCAxegAwIBAgIJAI8LJm0fd88hMA0GCSqGSIb3DQEBCwUAMIGeMQswCQYD
VQQGEwJNTTEOMAwGA1UECAwFQnVybWExETAPBgNVBAcMCE1hbmRhbGF5MRMwEQYD
VQQKDApVQVRfS0JaUGF5MRowGAYDVQQLDBFVQVRfS0JaUGF5X1BHV19DQTEXMBUG
A1UEAwwOYXBpLmtienBheS5jb20xIjAgBgkqhkiG9w0BCQEWE2ppYW5nYmluQGh1
YXdlaS5jb20wIBcNMjIwMzI1MDc0NTU0WhgPMjEyMjAzMDEwNzQ1NTRaMIGPMQsw
CQYDVQQGEwJNTTEOMAwGA1UECAwFQnVybWExEzARBgNVBAoMClVBVF9LQlpQYXkx
HjAcBgNVBAsMFVVBVF9LQlpQYXlfUEdXXzIwMDE5OTEXMBUGA1UEAwwOYXBpLmti
enBheS5jb20xIjAgBgkqhkiG9w0BCQEWE2ppYW5nYmluQGh1YXdlaS5jb20wggEi
MA0GCSqGSIb3DQEBAQUAA4IBDwAwggEKAoIBAQDHaDQx1d5XJWRIqTrRuMG4dSai
gTU8zfXTLWcPiH/S6fLEGkemFMKQTyELGhAgoxJTJj0sRJsMicrFHCU2O94fEzqA
F5rVV7PzwFG6CFmEpxdfuBAy/zXrr+ovL2PqniK2y68WMlI+CT3IqxLTxGtmUXJA
si+FoelZq2kS8iAbSlX55Goj6v2lo6odiLGj6xLZqxsxBdv0TbyQd0BaJI1oa4US
GvTpI2yc4C+mHxr8I8YqLaFW2j3RWustCQkIExQ7GJm08jZYAKrAdEiSlOSafBFz
e38g7T5Gh5kfFFYP7lAQdx2fQZlPNTTbiLb1l+LKrDg557c1F4aKJ34h9s3FAgMB
AAGjezB5MAkGA1UdEwQCMAAwLAYJYIZIAYb4QgENBB8WHU9wZW5TU0wgR2VuZXJh
dGVkIENlcnRpZmljYXRlMB0GA1UdDgQWBBQc6oHV04eehGSfLXKicn2TB3bfTTAf
BgNVHSMEGDAWgBRtC8RQvA3S7tqwfD2OscUGRzha1zANBgkqhkiG9w0BAQsFAAOC
AQEAn6hcVYVFzGyiyT7YBxRjwTaBFZ8eTTap0YIlGs/zZJ9gYbvJnEhjdVY9QPeF
8wURPzL3KpRCHrSNeRyZ/+fC0VtzFMyT6pVEEhUqkWZR+/u/0ZK3uOMbTzY0zOys
ZUeeHp91NeODZGg0ek4ZJLJiw1MSChH5SS9VnmKcTW8ERLh6QxpM3ilvKy13DRfj
imXBEx9CSlENnMMCo9ZnW8L92gz8GFOFCsRgyqs92L9JAhuI7IO4rVxpdgXXSVDT
a5PbnN3esrFUJ+M+dJbAV30Hvjm4FlWzrDHpJ0ZnxhDsSa4pRyNn+2mYhqRQvbyh
QJwKlZrrdWKVA1qaIZOGajDThA==
-----END CERTIFICATE-----
